target datalayout = "e-m:e-p270:32:32-p271:32:32-p272:64:64-i64:64-i128:128-f80:128-n8:16:32:64-S128"
target triple = "x86_64-pc-linux-gnu"

%struct.anon = type { i32, i32 }

; Function Attrs: nounwind uwtable
define internal i32 @strscan_oct(ptr noundef %0, ptr noundef %1, i32 noundef %2, i32 noundef %3, i32 noundef %4) #0 {
  %6 = alloca i32, align 4
  %7 = alloca ptr, align 8
  %8 = alloca ptr, align 8
  %9 = alloca i32, align 4
  %10 = alloca i32, align 4
  %11 = alloca i32, align 4
  %12 = alloca i64, align 8
  %13 = alloca i32, align 4
  store ptr %0, ptr %7, align 8, !tbaa !4
  store ptr %1, ptr %8, align 8, !tbaa !11
  store i32 %2, ptr %9, align 4, !tbaa !9
  store i32 %3, ptr %10, align 4, !tbaa !9
  store i32 %4, ptr %11, align 4, !tbaa !9
  call void @llvm.lifetime.start.p0(i64 8, ptr %12) #5
  store i64 0, ptr %12, align 8, !tbaa !22
  %14 = load i32, ptr %11, align 4, !tbaa !9
  %15 = icmp ugt i32 %14, 22
  br i1 %15, label %24, label %16

16:                                               ; preds = %5
  %17 = load i32, ptr %11, align 4, !tbaa !9
  %18 = icmp eq i32 %17, 22
  br i1 %18, label %19, label %25

19:                                               ; preds = %16
  %20 = load ptr, ptr %7, align 8, !tbaa !4
  %21 = load i8, ptr %20, align 1, !tbaa !13
  %22 = zext i8 %21 to i32
  %23 = icmp sgt i32 %22, 49
  br i1 %23, label %24, label %25

24:                                               ; preds = %19, %5
  store i32 0, ptr %6, align 4
  store i32 1, ptr %13, align 4
  br label %96

25:                                               ; preds = %19, %16
  br label %26

26:                                               ; preds = %41, %25
  %27 = load i32, ptr %11, align 4, !tbaa !9
  %28 = add i32 %27, -1
  store i32 %28, ptr %11, align 4, !tbaa !9
  %29 = icmp ugt i32 %27, 0
  br i1 %29, label %30, label %51

30:                                               ; preds = %26
  %31 = load ptr, ptr %7, align 8, !tbaa !4
  %32 = load i8, ptr %31, align 1, !tbaa !13
  %33 = zext i8 %32 to i32
  %34 = icmp sge i32 %33, 48
  br i1 %34, label %35, label %40

35:                                               ; preds = %30
  %36 = load ptr, ptr %7, align 8, !tbaa !4
  %37 = load i8, ptr %36, align 1, !tbaa !13
  %38 = zext i8 %37 to i32
  %39 = icmp sle i32 %38, 55
  br i1 %39, label %41, label %40

40:                                               ; preds = %35, %30
  store i32 0, ptr %6, align 4
  store i32 1, ptr %13, align 4
  br label %96

41:                                               ; preds = %35
  %42 = load i64, ptr %12, align 8, !tbaa !22
  %43 = shl i64 %42, 3
  %44 = load ptr, ptr %7, align 8, !tbaa !4
  %45 = getelementptr inbounds nuw i8, ptr %44, i32 1
  store ptr %45, ptr %7, align 8, !tbaa !4
  %46 = load i8, ptr %44, align 1, !tbaa !13
  %47 = zext i8 %46 to i32
  %48 = and i32 %47, 7
  %49 = sext i32 %48 to i64
  %50 = add i64 %43, %49
  store i64 %50, ptr %12, align 8, !tbaa !22
  br label %26, !llvm.loop !24

51:                                               ; preds = %26
  %52 = load i32, ptr %9, align 4, !tbaa !9
  switch i32 %52, label %81 [
    i32 3, label %53
    i32 4, label %61
    i32 5, label %82
    i32 6, label %82
  ]

53:                                               ; preds = %51
  %54 = load i64, ptr %12, align 8, !tbaa !22
  %55 = load i32, ptr %10, align 4, !tbaa !9
  %56 = add i32 -2147483648, %55
  %57 = zext i32 %56 to i64
  %58 = icmp uge i64 %54, %57
  br i1 %58, label %59, label %60

59:                                               ; preds = %53
  store i32 4, ptr %9, align 4, !tbaa !9
  br label %60

60:                                               ; preds = %59, %53
  br label %61

61:                                               ; preds = %51, %60
  %62 = load i64, ptr %12, align 8, !tbaa !22
  %63 = lshr i64 %62, 32
  %64 = icmp ne i64 %63, 0
  br i1 %64, label %65, label %66

65:                                               ; preds = %61
  store i32 0, ptr %6, align 4
  store i32 1, ptr %13, align 4
  br label %96

66:                                               ; preds = %61
  %67 = load i32, ptr %10, align 4, !tbaa !9
  %68 = icmp ne i32 %67, 0
  br i1 %68, label %69, label %74

69:                                               ; preds = %66
  %70 = load i64, ptr %12, align 8, !tbaa !22
  %71 = trunc i64 %70 to i32
  %72 = xor i32 %71, -1
  %73 = add i32 %72, 1
  br label %77

74:                                               ; preds = %66
  %75 = load i64, ptr %12, align 8, !tbaa !22
  %76 = trunc i64 %75 to i32
  br label %77

77:                                               ; preds = %74, %69
  %78 = phi i32 [ %73, %69 ], [ %76, %74 ]
  %79 = load ptr, ptr %8, align 8, !tbaa !11
  %80 = getelementptr inbounds nuw %struct.anon, ptr %79, i32 0, i32 0
  store i32 %78, ptr %80, align 8, !tbaa !13
  br label %94

81:                                               ; preds = %51
  br label %82

82:                                               ; preds = %51, %51, %81
  %83 = load i32, ptr %10, align 4, !tbaa !9
  %84 = icmp ne i32 %83, 0
  br i1 %84, label %85, label %89

85:                                               ; preds = %82
  %86 = load i64, ptr %12, align 8, !tbaa !22
  %87 = xor i64 %86, -1
  %88 = add i64 %87, 1
  br label %91

89:                                               ; preds = %82
  %90 = load i64, ptr %12, align 8, !tbaa !22
  br label %91

91:                                               ; preds = %89, %85
  %92 = phi i64 [ %88, %85 ], [ %90, %89 ]
  %93 = load ptr, ptr %8, align 8, !tbaa !11
  store i64 %92, ptr %93, align 8, !tbaa !13
  br label %94

94:                                               ; preds = %91, %77
  %95 = load i32, ptr %9, align 4, !tbaa !9
  store i32 %95, ptr %6, align 4
  store i32 1, ptr %13, align 4
  br label %96

96:                                               ; preds = %94, %65, %40, %24
  call void @llvm.lifetime.end.p0(i64 8, ptr %12) #5
  %97 = load i32, ptr %6, align 4
  ret i32 %97
}