; Function Attrs: nofree norecurse nosync nounwind memory(argmem: readwrite) uwtable
define internal fastcc i32 @strscan_oct(ptr noundef readonly captures(none) %0, ptr noundef writeonly captures(none) %1, i32 noundef range(i32 3, 1) %2, i32 noundef range(i32 0, 2) %3, i32 noundef %4) unnamed_addr #2 {
  %6 = icmp ugt i32 %4, 22
  br i1 %6, label %.loopexit, label %7

7:                                                ; preds = %5
  switch i32 %4, label %.lr.ph.preheader [
    i32 22, label %8
    i32 0, label %._crit_edge
  ]

8:                                                ; preds = %7
  %9 = load i8, ptr %0, align 1, !tbaa !4
  %10 = icmp ugt i8 %9, 49
  br i1 %10, label %.loopexit, label %.lr.ph.preheader

.lr.ph.preheader:                                 ; preds = %7, %8
  br label %.lr.ph

.lr.ph:                                           ; preds = %.lr.ph.preheader, %13
  %.in = phi i32 [ %14, %13 ], [ %4, %.lr.ph.preheader ]
  %.036 = phi i64 [ %19, %13 ], [ 0, %.lr.ph.preheader ]
  %.02435 = phi ptr [ %16, %13 ], [ %0, %.lr.ph.preheader ]
  %11 = load i8, ptr %.02435, align 1, !tbaa !4
  %12 = and i8 %11, -8
  %or.cond = icmp eq i8 %12, 48
  br i1 %or.cond, label %13, label %.loopexit

13:                                               ; preds = %.lr.ph
  %14 = add i32 %.in, -1
  %15 = shl i64 %.036, 3
  %16 = getelementptr inbounds nuw i8, ptr %.02435, i64 1
  %17 = and i8 %11, 7
  %18 = zext nneg i8 %17 to i64
  %19 = or disjoint i64 %15, %18
  %.not = icmp eq i32 %14, 0
  br i1 %.not, label %._crit_edge, label %.lr.ph, !llvm.loop !14

._crit_edge:                                      ; preds = %13, %7
  %.0.lcssa = phi i64 [ 0, %7 ], [ %19, %13 ]
  switch i32 %2, label %28 [
    i32 3, label %20
    i32 4, label %23
  ]

20:                                               ; preds = %._crit_edge
  %21 = or disjoint i32 %3, -2147483648
  %22 = zext i32 %21 to i64
  %.not29 = icmp ult i64 %.0.lcssa, %22
  %spec.select = select i1 %.not29, i32 3, i32 4
  br label %23

23:                                               ; preds = %20, %._crit_edge
  %.023 = phi i32 [ %2, %._crit_edge ], [ %spec.select, %20 ]
  %.not30 = icmp ult i64 %.0.lcssa, 4294967296
  br i1 %.not30, label %24, label %.loopexit

24:                                               ; preds = %23
  %.not31 = icmp eq i32 %3, 0
  %25 = trunc nuw i64 %.0.lcssa to i32
  %26 = sub i32 0, %25
  %27 = select i1 %.not31, i32 %25, i32 %26
  store i32 %27, ptr %1, align 8, !tbaa !4
  br label %.loopexit

28:                                               ; preds = %._crit_edge
  %.not32 = icmp eq i32 %3, 0
  %29 = sub i64 0, %.0.lcssa
  %30 = select i1 %.not32, i64 %.0.lcssa, i64 %29
  store i64 %30, ptr %1, align 8, !tbaa !4
  br label %.loopexit

.loopexit:                                        ; preds = %.lr.ph, %24, %28, %23, %5, %8
  %.022 = phi i32 [ 0, %8 ], [ 0, %5 ], [ 0, %23 ], [ %2, %28 ], [ %.023, %24 ], [ 0, %.lr.ph ]
  ret i32 %.022
}